; Function Attrs: mustprogress nofree norecurse nosync nounwind willreturn memory(read, inaccessiblemem: none) uwtable
define i64 @_ZNK10OpenSubdiv6v3_6_03Far10PatchTable22GetPatchFVarPatchParamEiii(ptr nocapture noundef nonnull readonly align 8 dereferenceable(273) %0, i32 noundef %1, i32 noundef %2, i32 noundef %3) local_unnamed_addr #6 align 2 {
  %5 = getelementptr inbounds nuw i8, ptr %0, i64 8
  %6 = sext i32 %1 to i64
  %7 = load ptr, ptr %5, align 8
  %8 = getelementptr inbounds %"struct.OpenSubdiv::v3_6_0::Far::PatchTable::PatchArray", ptr %7, i64 %6, i32 3
  %9 = load i32, ptr %8, align 4
  %10 = add nsw i32 %9, %2
  %11 = getelementptr inbounds nuw i8, ptr %0, i64 176
  %12 = sext i32 %3 to i64
  %13 = load ptr, ptr %11, align 8
  %14 = getelementptr inbounds %"struct.OpenSubdiv::v3_6_0::Far::PatchTable::FVarPatchChannel", ptr %13, i64 %12, i32 5
  %15 = sext i32 %10 to i64
  %16 = load ptr, ptr %14, align 8
  %17 = getelementptr inbounds %"struct.OpenSubdiv::v3_6_0::Far::PatchParam", ptr %16, i64 %15
  %.sroa.0.0.copyload.i = load i64, ptr %17, align 4
  ret i64 %.sroa.0.0.copyload.i
}